(dp0
S'all'
p1
S'swoytodkolfsab'
p2
sS'chinese'
p3
S'kidjon'
p4
sS'dance'
p5
S'bayraqtanatyaw'
p6
sS'scratch'
p7
S'djwakharastsar'
p8
sS'yellow'
p9
S'hwanarpilsfarjol'
p10
sS'four'
p11
S'kwatsarbatcit'
p12
sS'sleep'
p13
S'cweydorsonamspa'
p14
sS'skin'
p15
S'pipyeltvatgelkoz'
p16
sS'go'
p17
S'tcivarah'
p18
sS'query'
p19
S'tcactilkonkverzap'
p20
sS'chair'
p21
S'siyidkurstul'
p22
sS'hate'
p23
S'hanindyaghrnakir'
p24
sS'milk'
p25
S'naylabmaletud'
p26
sS'carpet'
p27
S'ditsegalfomkav'
p28
sS'father'
p29
S'babadet'
p30
sS'thursday'
p31
S'tchwevgurham'
p32
sS'to'
p33
S'dawkolena'
p34
sS'tail'
p35
S'weykolputelhvos'
p36
sS'does'
p37
S'dzwosekarfaldel'
p38
sS'th'
p39
S'diva'
p40
sS'recycle'
p41
S'hwecpuntadpires'
p42
sS'sorry'
p43
S'dweblosfimaf'
p44
sS'washroom'
p45
S'tsasotuabanir'
p46
sS'brown'
p47
S'dzonarbhurbunkar'
p48
sS'woman'
p49
S'muhsetjenirat'
p50
sS'far'
p51
S'yendulehbei'
p52
sS'fat'
p53
S'djifgrastcardeh'
p54
sS'spoon'
p55
S'kutcawmaloc'
p56
sS'mourn'
p57
S'galamadaw'
p58
sS'yourewelcome'
p59
S'bukoydenfwanpaj'
p60
sS'fall'
p61
S'gilwocwekaepad'
p62
sS'cook'
p63
S'gadzwotapakos'
p64
sS'wipe'
p65
S'limasponvitsa'
p66
sS'minute'
p67
S'famindaq'
p68
sS'heaven'
p69
S'tyenibsyelsvargan'
p70
sS'tear'
p71
S'torasamazrva'
p72
sS'die'
p73
S'samormat'
p74
sS'button'
p75
S'anyozurknobot'
p76
sS'dig'
p77
S'wakavkhodhafri'
p78
sS'list'
p79
S'danlispisqai'
p80
sS'solution'
p81
S'djyedsolicpayhal'
p82
sS'hive'
p83
S'koliqafontchat'
p84
sS'try'
p85
S'kocahawpitrat'
p86
sS'sand'
p87
S'arenretpica'
p88
sS'knife'
p89
S'tcakudawnoc'
p90
sS'small'
p91
S'cyawpektchotsogmal'
p92
sS'round'
p93
S'yenedkrugored'
p94
sS'clothes'
p95
S'ifuropkaphidej'
p96
sS'pork'
p97
S'djursuahinsvin'
p98
sS'ten'
p99
S'dyecadasra'
p100
sS'fingernail'
p101
S'djidafnyanahnog'
p102
sS'horn'
p103
S'djyawsikweroqar'
p104
sS'zero'
p105
S'selinulcunsif'
p106
sS'video'
p107
S'capidvid'
p108
sS'follow'
p109
S'swesegpitabsled'
p110
sS'chicken'
p111
S'poymurdadjikur'
p112
sS'blue'
p113
S'asulanilzraqsin'
p114
sS'will'
p115
S'hweregsabu'
p116
sS'what'
p117
S'cankekyahcto'
p118
sS'hide'
p119
S'eskontchipryatsankaf'
p120
sS'soup'
p121
S'tanhasop'
p122
sS'sun'
p123
S'taysolcam'
p124
sS'rotten'
p125
S'podsalanafgnil'
p126
sS'above'
p127
S'encanadparfaw'
p128
sS'new'
p129
S'cinwevnaygednov'
p130
sS'row'
p131
S'cinpansafilyat'
p132
sS'bird'
p133
S'nyawpahterptitcir'
p134
sS'exercise'
p135
S'indonhervyaypraj'
p136
sS'body'
p137
S'carnkwerbadel'
p138
sS'burn'
p139
S'cawkemharjedjal'
p140
sS'hero'
p141
S'incyonkarwebat'
p142
sS'praise'
p143
S'madzanhvalaprac'
p144
sS'leg'
p145
S'twepyeregtanag'
p146
sS'never'
p147
S'tsonunikabad'
p148
sS'here'
p149
S'djelkiyahenzdes'
p150
sS'water'
p151
S'cweygwapanayvad'
p152
sS'slow'
p153
S'lemandhimbat'
p154
sS'let'
p155
S'randesampaz'
p156
sS'sink'
p157
S'cwetsinifregbal'
p158
sS'sing'
p159
S'tcankanpe'
p160
sS'november'
p161
S'cainovnay'
p162
sS'strong'
p163
S'tcyanadfwerqawsil'
p164
sS'fifteen'
p165
S'kincawpamt'
p166
sS'change'
p167
S'gambadzmin'
p168
sS'wait'
p169
S'dantazdasper'
p170
sS'dry'
p171
S'seganacuh'
p172
sS'search'
p173
S'buskadjaw'
p174
sS'thirty'
p175
S'tretisan'
p176
sS'my'
p177
S'wodmoyr'
p178
sS'metre'
p179
S'gometr'
p180
sS'queue'
p181
S'paykatcirsafil'
p182
sS'smoke'
p183
S'yenodhuadohdim'
p184
sS'menu'
p185
S'tsaymenqai'
p186
sS'weird'
p187
S'tcigstrandjib'
p188
sS'narrow'
p189
S'estredjaytanski'
p190
sS'mix'
p191
S'smeshunhal'
p192
sS'thats'
p193
S'kencto'
p194
sS'love'
p195
S'hapremalyub'
p196
sS'apple'
p197
S'sepinantufyab'
p198
sS'family'
p199
S'djyatfamparasim'
p200
sS'put'
p201
S'fanponraklasda'
p202
sS'ninety'
p203
S'djyownovnabtisdiv'
p204
sS'cloud'
p205
S'yinubadsehblak'
p206
sS'use'
p207
S'yunsastempot'
p208
sS'from'
p209
S'tsonende'
p210
sS'angry'
p211
S'gucanfadgadzlit'
p212
sS'two'
p213
S'ardvostnen'
p214
sS'figurative'
p215
S'biyfiglakmagbraz'
p216
sS'few'
p217
S'cawpokolthornim'
p218
sS'live'
p219
S'hwovivdji'
p220
sS'camera'
p221
S'cyankam'
p222
sS'lock'
p223
S'swertalqafzam'
p224
sS'type'
p225
S'klastaleynawtip'
p226
sS'today'
p227
S'djinahoysiv'
p228
sS'more'
p229
S'masdjyadwoktarbol'
p230
sS'breathe'
p231
S'hucasrestnafdic'
p232
sS'door'
p233
S'manbapwerdvar'
p234
sS'about'
p235
S'gwansobar'
p236
sS'refrain'
p237
S'bimtanbstenparvaz'
p238
sS'chopstick'
p239
S'kwaydpalkat'
p240
sS'warm'
p241
S'wankaldaftyop'
p242
sS'stick'
p243
S'cudanpalsay'
p244
sS'hole'
p245
S'konyotchedirhuf'
p246
sS'hold'
p247
S'tenaspakdir'
p248
sS'nineteen'
p249
S'undicadiv'
p250
sS'folder'
p251
S'mulkarfolmudpap'
p252
sS'must'
p253
S'delbicparaz'
p254
sS'fly'
p255
S'feybolitar'
p256
sS'word'
p257
S'tsapalkilslov'
p258
sS'room'
p259
S'fankwarkamda'
p260
sS'hour'
p261
S'oraghantcyaws'
p262
sS'this'
p263
S'djesteyah'
p264
sS'car'
p265
S'kotcagarabmac'
p266
sS'work'
p267
S'trabctagon'
p268
sS'worm'
p269
S'guskirdutcyoytcer'
p270
sS'cat'
p271
S'mawgatbil'
p272
sS'donut'
p273
S'tyenrosdonpon'
p274
sS'eighteen'
p275
S'athamdyecabvas'
p276
sS'nine'
p277
S'djyownwevtisdev'
p278
sS'thin'
p279
S'bawpadelofton'
p280
sS'den'
p281
S'garinarmatcaw'
p282
sS'learn'
p283
S'cweprentaltsik'
p284
sS'root'
p285
S'gangedjaraikor'
p286
sS'example'
p287
S'lidahemitprim'
p288
sS'beautiful'
p289
S'gamermeykrasun'
p290
sS'heart'
p291
S'cinkordilser'
p292
sS'thirsty'
p293
S'kapyasedcanjaj'
p294
sS'give'
p295
S'geyda'
p296
sS'december'
p297
S'dicardik'
p298
sS'high'
p299
S'altcovisgaw'
p300
sS'drawer'
p301
S'tcotarkahdjaryac'
p302
sS'something'
p303
S'moctothalgot'
p304
sS'want'
p305
S'yawizkertcahot'
p306
sS'sharp'
p307
S'agudikhamstli'
p308
sS'pink'
p309
S'fangurosah'
p310
sS'information'
p311
S'dcinformal'
p312
sS'goal'
p313
S'mubmetselakhad'
p314
sS'turn'
p315
S'djwanurafrachir'
p316
sS'six'
p317
S'lyowsetcheh'
p318
sS'write'
p319
S'eskribicyelikat'
p320
sS'how'
p321
S'dzankesaykakom'
p322
sS'sunday'
p323
S'hadyomravas'
p324
sS'forest'
p325
S'dsangaboslyes'
p326
sS'animal'
p327
S'djunimhayjiv'
p328
sS'answer'
p329
S'hwetvedjabres'
p330
sS'gate'
p331
S'manpawrtvar'
p332
sS'pizza'
p333
S'bispit'
p334
sS'lamb'
p335
S'yankorzigmem'
p336
sS'plant'
p337
S'planapodjawras'
p338
sS'may'
p339
S'wuymay'
p340
sS'after'
p341
S'howbadespos'
p342
sS'eighty'
p343
S'batcamvosi'
p344
sS'wrong'
p345
S'inkorhatswonip'
p346
sS'wrist'
p347
S'wanunasapkal'
p348
sS'blood'
p349
S'cyesanhundamkrof'
p350
sS'suck'
p351
S'tcupsmas'
p352
sS'man'
p353
S'adnanbregmuc'
p354
sS'short'
p355
S'dwanatkorqos'
p356
sS'neck'
p357
S'bodgarakweycey'
p358
sS'light'
p359
S'pragwanolusvet'
p360
sS'sit'
p361
S'senbedzwoqadsid'
p362
sS'green'
p363
S'veliharhdarzil'
p364
sS'silence'
p365
S'tcanhamsuktisil'
p366
sS'egg'
p367
S'wevbedandayiy'
p368
sS'wing'
p369
S'tcibakenklal'
p370
sS'wind'
p371
S'hawvyent'
p372
sS'wine'
p373
S'viniputcar'
p374
sS'help'
p375
S'banadyudsad'
p376
sS'september'
p377
S'sipdjyow'
p378
sS'brain'
p379
S'mawhser'
p380
sS'paper'
p381
S'djapapumkagwar'
p382
sS'cold'
p383
S'friothanbalanhal'
p384
sS'still'
p385
S'hayizaltodabtak'
p386
sS'worship'
p387
S'baypudorpak'
p388
sS'arrogant'
p389
S'arogabhimutvis'
p390
sS'before'
p391
S'tcyentesqapah'
p392
sS'group'
p393
S'dzumadgrup'
p394
sS'thank'
p395
S'gracyecukdhanspas'
p396
sS'pray'
p397
S'dawprarsalmal'
p398
sS'actually'
p399
S'reabigdisadjan'
p400
sS'late'
p401
S'tahirpozwan'
p402
sS'window'
p403
S'tcwanvenkhircebkno'
p404
sS'orange'
p405
S'tcanaranbur'
p406
sS'bye'
p407
S'adyoslalvidzaypak'
p408
sS'sauce'
p409
S'tcadjyansols'
p410
sS'split'
p411
S'fanparacaqban'
p412
sS'coffee'
p413
S'kafqah'
p414
sS'good'
p415
S'bwentchawrtay'
p416
sS'return'
p417
S'hwevolotreg'
p418
sS'pure'
p419
S'tcudnaqpur'
p420
sS'gray'
p421
S'griseramdhweys'
p422
sS'food'
p423
S'cakomlyid'
p424
sS'safe'
p425
S'antcweminsurbiseg'
p426
sS'break'
p427
S'romtudapkasraz'
p428
sS'vomit'
p429
S'ulturagblivom'
p430
sS'snake'
p431
S'carsaphanzmiy'
p432
sS'they'
p433
S'tamiyosvehom'
p434
sS'foot'
p435
S'djyawperegstapye'
p436
sS'now'
p437
S'abdorcacyen'
p438
sS'day'
p439
S'bayomdiadin'
p440
sS'bread'
p441
S'rotchlepamyen'
p442
sS'february'
p443
S'fibfarye'
p444
sS'name'
p445
S'nims'
p446
sS'always'
p447
S'dzyemphamdayfsig'
p448
sS'ashes'
p449
S'hweysenrakrampep'
p450
sS'weather'
p451
S'tyenostaqpag'
p452
sS'each'
p453
S'meykajdharkol'
p454
sS'tray'
p455
S'tretwopansin'
p456
sS'bone'
p457
S'weshadgus'
p458
sS'mean'
p459
S'kaybkruenirzloy'
p460
sS'heavy'
p461
S'djunpesbharteqtij'
p462
sS'square'
p463
S'kwadjamurvar'
p464
sS'house'
p465
S'kasgharbidjyadom'
p466
sS'fish'
p467
S'yiripezamat'
p468
sS'hard'
p469
S'tvyornkarsul'
p470
sS'yeah'
p471
S'cahaywada'
p472
sS'january'
p473
S'djyaner'
p474
sS'wednesday'
p475
S'sanyerbudsrid'
p476
sS'thirteen'
p477
S'terincas'
p478
sS'year'
p479
S'salsanyengot'
p480
sS'our'
p481
S'wonweshamac'
p482
sS'saturday'
p483
S'lyosabn'
p484
sS'special'
p485
S'tabvispesobhas'
p486
sS'flower'
p487
S'florphulzahwatsvit'
p488
sS'forty'
p489
S'sackwarbaitcal'
p490
sS'internet'
p491
S'wantarnet'
p492
sS'correct'
p493
S'dwekorsahprav'
p494
sS'red'
p495
S'ahmalarohunkras'
p496
sS'friday'
p497
S'wubyarcukom'
p498
sS'story'
p499
S'guctorkah'
p500
sS'fourteen'
p501
S'katorbatcosd'
p502
sS'ask'
p503
S'wanputspragsal'
p504
sS'teach'
p505
S'djyawpriparansen'
p506
sS'seventy'
p507
S'tcisetsabsem'
p508
sS'care'
p509
S'degwanporhtamzab'
p510
sS'scary'
p511
S'kapmyedarmuhstrac'
p512
sS'language'
p513
S'yuyazlenbhaclog'
p514
sS'english'
p515
S'inwangles'
p516
sS'louse'
p517
S'pyohdcaqamvoc'
p518
sS'keep'
p519
S'bawgarakhtafder'
p520
sS'thing'
p521
S'donkostcizvec'
p522
sS'place'
p523
S'diflugdjagmakmes'
p524
sS'loud'
p525
S'dacfwerdjorgrom'
p526
sS'think'
p527
S'cyanpensotfakdum'
p528
sS'south'
p529
S'surdakananyuk'
p530
sS'cheese'
p531
S'kesilawgepan'
p532
sS'already'
p533
S'yidpahsal'
p534
sS'dont'
p535
S'buynola'
p536
sS'feel'
p537
S'tcumsar'
p538
sS'number'
p539
S'adadcusanum'
p540
sS'one'
p541
S'yikwahdino'
p542
sS'wash'
p543
S'lavdhogacimi'
p544
sS'long'
p545
S'tcanlartowdlam'
p546
sS'spanish'
p547
S'ispan'
p548
sS'scissors'
p549
S'tihmakedjyenoj'
p550
sS'thick'
p551
S'grwesmotehowtol'
p552
sS'open'
p553
S'fatkaylbri'
p554
sS'tomorrow'
p555
S'minbukalzaf'
p556
sS'city'
p557
S'syutcamadcahgor'
p558
sS'guess'
p559
S'adivhanumgatsay'
p560
sS'twenty'
p561
S'arcarbisdvat'
p562
sS'bite'
p563
S'yawmorkatkus'
p564
sS'plastic'
p565
S'plasulbil'
p566
sS'their'
p567
S'tamkasuyihum'
p568
sS'too'
p569
S'taydemufbahslic'
p570
sS'ankle'
p571
S'wantakahlatob'
p572
sS'white'
p573
S'baydblansaf'
p574
sS'hundred'
p575
S'baysyeniysosto'
p576
sS'banana'
p577
S'cyanozbankel'
p578
sS'friend'
p579
S'panigmitruksad'
p580
sS'toe'
p581
S'djyawdoglisobal'
p582
sS'ceiling'
p583
S'saqpatetchatyen'
p584
sS'hug'
p585
S'yonaqbraslinbnim'
p586
sS'that'
p587
S'nasevahdaw'
p588
sS'shelf'
p589
S'djyastantakporaf'
p590
sS'tool'
p591
S'upagunstramdah'
p592
sS'july'
p593
S'tciyulhul'
p594
sS'believe'
p595
S'cyanankresadver'
p596
sS'than'
p597
S'biketsemen'
p598
sS'remember'
p599
S'rekyadjidakpom'
p600
sS'wide'
p601
S'kwantcorwas'
p602
sS'tree'
p603
S'cugderbol'
p604
sS'second'
p605
S'segsamyaw'
p606
sS'bed'
p607
S'tcwankampalserkrav'
p608
sS'shower'
p609
S'lindutucav'
p610
sS'silly'
p611
S'tonacahglup'
p612
sS'maybe'
p613
S'myecayimkis'
p614
sS'and'
p615
S'harwe'
p616
sS'function'
p617
S'finilabtcal'
p618
sS'humble'
p619
S'smilnamutcyen'
p620
sS'false'
p621
S'falojdjhudjya'
p622
sS'sad'
p623
S'tricandukrushaz'
p624
sS'juice'
p625
S'djarasokhug'
p626
sS'say'
p627
S'decwokahlskaz'
p628
sS'seed'
p629
S'bidjunbez'
p630
sS'have'
p631
S'yotenepas'
p632
sS'need'
p633
S'neciyzarhtad'
p634
sS'any'
p635
S'ralgunkolyub'
p636
sS'triangle'
p637
S'sanutriakt'
p638
sS'mountain'
p639
S'canongapahgar'
p640
sS'self'
p641
S'hudzadmifsib'
p642
sS'able'
p643
S'nanotpodsakad'
p644
sS'snow'
p645
S'cyenyebartalsnek'
p646
sS'bagel'
p647
S'bupanbeygak'
p648
sS'also'
p649
S'yetambhikamtoj'
p650
sS'build'
p651
S'djyenkonbanstroi'
p652
sS'which'
p653
S'kwalkonaykat'
p654
sS'so'
p655
S'swoysiklitok'
p656
sS'play'
p657
S'wanhuglebkhel'
p658
sS'though'
p659
S'sweragunhalt'
p660
sS'who'
p661
S'ceykyeminkto'
p662
sS'most'
p663
S'dzwemasabnayl'
p664
sS'mouth'
p665
S'bokmuhanrodzwe'
p666
sS'nothing'
p667
S'meynadkutlac'
p668
sS'knee'
p669
S'ciroghutkarod'
p670
sS'why'
p671
S'wecporehkyopat'
p672
sS'bug'
p673
S'tconsekirhacbuk'
p674
sS'noone'
p675
S'meynadmahnikoy'
p676
sS'gather'
p677
S'cowhunkatjamsob'
p678
sS'flow'
p679
S'fluibahgelyotet'
p680
sS'dog'
p681
S'pergotkalpyos'
p682
sS'tooth'
p683
S'yatyendatsenzup'
p684
sS'bun'
p685
S'bawboyburotkah'
p686
sS'hotdog'
p687
S'ragpanuqhat'
p688
sS'salt'
p689
S'yenamalsal'
p690
sS'dot'
p691
S'puntodyenuq'
p692
sS'show'
p693
S'dikradjanospak'
p694
sS'cheap'
p695
S'pyenbarihdisas'
p696
sS'fifty'
p697
S'wucinpatham'
p698
sS'bring'
p699
S'daytragaprin'
p700
sS'shoe'
p701
S'sapacgacyedjut'
p702
sS'earth'
p703
S'dityerdharzim'
p704
sS'fear'
p705
S'temdarhafpay'
p706
sS'ear'
p707
S'ardwodrehakan'
p708
sS'front'
p709
S'qutcyamfrenper'
p710
sS'true'
p711
S'syerdjansahprav'
p712
sS'sentence'
p713
S'orasvakumpridjid'
p714
sS'enough'
p715
S'gowbarskefdas'
p716
sS'should'
p717
S'yindebtcahdol'
p718
sS'only'
p719
S'djiysolfaqtol'
p720
sS'black'
p721
S'heynegalswedcor'
p722
sS'circle'
p723
S'sirtcakrukdayen'
p724
sS'rice'
p725
S'mirostcav'
p726
sS'youall'
p727
S'nimtovosp'
p728
sS'do'
p729
S'dzwosekarfaldel'
p730
sS'his'
p731
S'tadsuskahuyiv'
p732
sS'hit'
p733
S'golmardar'
p734
sS'get'
p735
S'hwodostalkonpa'
p736
sS'stop'
p737
S'parukwaqstin'
p738
sS'yogurt'
p739
S'swanyogdahzab'
p740
sS'bean'
p741
S'dowfrihfasembop'
p742
sS'breast'
p743
S'cyonpetchatsedgrut'
p744
sS'enemy'
p745
S'adirnemducvrak'
p746
sS'remove'
p747
S'hatnakitcutvit'
p748
sS'bag'
p749
S'balsumki'
p750
sS'bad'
p751
S'malbrohwah'
p752
sS'she'
p753
S'tavaheyana'
p754
sS'river'
p755
S'rionadnaharik'
p756
sS'where'
p757
S'kahfengdonal'
p758
sS'husband'
p759
S'malawpatgozmuj'
p760
sS'sew'
p761
S'fankosihay'
p762
sS'seventeen'
p763
S'sadyesimb'
p764
sS'nut'
p765
S'akhrehdjyawnwes'
p766
sS'freeze'
p767
S'dondjamtala'
p768
sS'see'
p769
S'cavedekan'
p770
sS'computer'
p771
S'dyenkomhasan'
p772
sS'are'
p773
S'castahokanbi'
p774
sS'sea'
p775
S'samarbahay'
p776
sS'close'
p777
S'sergwanbadqaf'
p778
sS'bark'
p779
S'cupkorgetchal'
p780
sS'arm'
p781
S'brasderuk'
p782
sS'practice'
p783
S'lyenpraktadbyas'
p784
sS'wire'
p785
S'cyenkabrovtarsil'
p786
sS'closet'
p787
S'bitrmarkothazkaf'
p788
sS'pattern'
p789
S'patnamocor'
p790
sS'please'
p791
S'favatcinkrpaj'
p792
sS'icecream'
p793
S'binutismalad'
p794
sS'outside'
p795
S'fwayrbaharnar'
p796
sS'finger'
p797
S'cowbaldedugli'
p798
sS'between'
p799
S'bendjadmej'
p800
sS'it'
p801
S'etasoyahow'
p802
sS'email'
p803
S'dyemaylkor'
p804
sS'we'
p805
S'womoshamhna'
p806
sS'august'
p807
S'bayagus'
p808
sS'parent'
p809
S'patcimatwarad'
p810
sS'screen'
p811
S'pincaskrin'
p812
sS'attention'
p813
S'adjyentabvnim'
p814
sS'weak'
p815
S'durwodabslab'
p816
sS'wear'
p817
S'tcwanasyevlipah'
p818
sS'key'
p819
S'klyawvtcabmut'
p820
sS'come'
p821
S'vengeplay'
p822
sS'improve'
p823
S'gamehasudlut'
p824
sS'piece'
p825
S'kwaypedukushet'
p826
sS'many'
p827
S'mudwobahmnoket'
p828
sS'april'
p829
S'saybril'
p830
sS'toplant'
p831
S'djonsazaroplan'
p832
sS'fluffy'
p833
S'pecpanroeq'
p834
sS'wall'
p835
S'stcyanpardivhay'
p836
sS'tuesday'
p837
S'ftalmarg'
p838
sS'walk'
p839
S'dzowkamectcal'
p840
sS'laugh'
p841
S'reidehacyawsmiy'
p842
sS'table'
p843
S'djwodmestar'
p844
sS'expensive'
p845
S'gweykarmahdar'
p846
sS'beef'
p847
S'monyorbakargav'
p848
sS'west'
p849
S'pecipgar'
p850
sS'three'
p851
S'tresantintal'
p852
sS'beer'
p853
S'pidserbirv'
p854
sS'hindi'
p855
S'hindi'
p856
sS'feather'
p857
S'yimplumpanpiric'
p858
sS'box'
p859
S'kahadibsunkar'
p860
sS'spit'
p861
S'eskuplivthuktuf'
p862
sS'fire'
p863
S'hwofwegonar'
p864
sS'thousand'
p865
S'tcyenilhaztis'
p866
sS'understand'
p867
S'samintenfihpan'
p868
sS'liver'
p869
S'gadyagankebet'
p870
sS'child'
p871
S'hayelninbatit'
p872
sS'those'
p873
S'nacosvedyol'
p874
sS'sound'
p875
S'avacontzvuk'
p876
sS'these'
p877
S'djactosyedol'
p878
sS'straight'
p879
S'djaderekprim'
p880
sS'rope'
p881
S'kweracanhabvir'
p882
sS'ugly'
p883
S'feoqabatcowrod'
p884
sS'near'
p885
S'djinazqorbliser'
p886
sS'fun'
p887
S'kaydivismazmar'
p888
sS'seven'
p889
S'syetcabsem'
p890
sS'is'
p891
S'castahokanbi'
p892
sS'telephone'
p893
S'telhadyen'
p894
sS'middle'
p895
S'wasredjoned'
p896
sS'someone'
p897
S'koyorgyencahktot'
p898
sS'in'
p899
S'dzaynefe'
p900
sS'arabic'
p901
S'arabi'
p902
sS'if'
p903
S'rugaryesi'
p904
sS'funny'
p905
S'gracyawmadsmic'
p906
sS'different'
p907
S'buydifmuhdlag'
p908
sS'make'
p909
S'djidelbansan'
p910
sS'bowl'
p911
S'wanisulbolkat'
p912
sS'same'
p913
S'iyanizabvahtaj'
p914
sS'beside'
p915
S'panladbagan'
p916
sS'belly'
p917
S'barpedudjiv'
p918
sS'difficult'
p919
S'nankatrudifsab'
p920
sS'week'
p921
S'senidjosabo'
p922
sS'sell'
p923
S'bemaybrat'
p924
sS'finish'
p925
S'wanterkonha'
p926
sS'swell'
p927
S'pontcadwerpuh'
p928
sS'drink'
p929
S'hapitcer'
p930
sS'yesterday'
p931
S'dzwotyerkalmbarftcir'
p932
sS'rain'
p933
S'yivbarmatoc'
p934
sS'hand'
p935
S'cowmanhatruk'
p936
sS'fruit'
p937
S'cweyfrutphalfakplot'
p938
sS'unicorn'
p939
S'dyutagunikhar'
p940
sS'dust'
p941
S'tcanpoldhultor'
p942
sS'weep'
p943
S'yorbakuprok'
p944
sS'butter'
p945
S'hwananakmazeb'
p946
sS'database'
p947
S'bacudetqai'
p948
sS'i'
p949
S'woyome'
p950
sS'colour'
p951
S'tsvatkolawg'
p952
sS'floor'
p953
S'dibisfardiypol'
p954
sS'person'
p955
S'peranvyakcaktcil'
p956
sS'mother'
p957
S'mamad'
p958
sS'very'
p959
S'bahanuygedcin'
p960
sS'the'
p961
S'naglo'
p962
sS'audio'
p963
S'awdyinsot'
p964
sS'yours'
p965
S'nimvwecapku'
p966
sS'left'
p967
S'dzwoskyerevbaycem'
p968
sS'less'
p969
S'cawkamenqal'
p970
sS'money'
p971
S'tcyendinpesfel'
p972
sS'not'
p973
S'bunehc'
p974
sS'shape'
p975
S'cinforcakar'
p976
sS'kill'
p977
S'camatmarqatbiv'
p978
sS'human'
p979
S'vyaknsanbrantcil'
p980
sS'touch'
p981
S'tcumtoklamtrog'
p982
sS'yes'
p983
S'cahaywada'
p984
sS'blow'
p985
S'sophuknafdutcwe'
p986
sS'cut'
p987
S'korezkatcye'
p988
sS'cup'
p989
S'byaltcasfen'
p990
sS'guts'
p991
S'tcantartripmaskic'
p992
sS'sky'
p993
S'tyenebsyelsmansam'
p994
sS'lake'
p995
S'djhulagbohzir'
p996
sS'ketchup'
p997
S'fanked'
p998
sS'source'
p999
S'gamastotfwensrot'
p1000
sS'add'
p1001
S'anyadjyardafdab'
p1002
sS'other'
p1003
S'tcitustantrog'
p1004
sS'easy'
p1005
S'ronfasansahlyoh'
p1006
sS'wet'
p1007
S'camohmabmogil'
p1008
sS'east'
p1009
S'purcarvasdon'
p1010
sS'take'
p1011
S'hatonable'
p1012
sS'swim'
p1013
S'yoynaderplav'
p1014
sS'march'
p1015
S'marsan'
p1016
sS'around'
p1017
S'alredspashaweyvak'
p1018
sS'read'
p1019
S'paleqartcidu'
p1020
sS'big'
p1021
S'dagrankebar'
p1022
sS'early'
p1023
S'temdjalanbadzaw'
p1024
sS'five'
p1025
S'wusinpyatham'
p1026
sS'know'
p1027
S'djidjansabrefzna'
p1028
sS'desk'
p1029
S'eskridjwodestolmak'
p1030
sS'world'
p1031
S'cadunilamun'
p1032
sS'meat'
p1033
S'karowmaslah'
p1034
sS'shoulder'
p1035
S'kadjyenbrot'
p1036
sS'like'
p1037
S'gucihapasnrav'
p1038
sS'message'
p1039
S'ricinensap'
p1040
sS'hunt'
p1041
S'kazikstadalhot'
p1042
sS'nose'
p1043
S'binakmanarnos'
p1044
sS'lose'
p1045
S'catirperfakho'
p1046
sS'become'
p1047
S'stcanvolesban'
p1048
sS'soft'
p1049
S'brankonamyah'
p1050
sS'twelve'
p1051
S'docarbaritin'
p1052
sS'right'
p1053
S'derdahyomprav'
p1054
sS'cognate'
p1055
S'tonkogartmiy'
p1056
sS'some'
p1057
S'djigutlgunecow'
p1058
sS'back'
p1059
S'beyspalpitahspin'
p1060
sS'hair'
p1061
S'tofolkabalcar'
p1062
sS'born'
p1063
S'djanastwalatcuc'
p1064
sS'chocolate'
p1065
S'tcyawtcok'
p1066
sS'mirror'
p1067
S'djinirspehdarzer'
p1068
sS'home'
p1069
S'ogharbidjyadom'
p1070
sS'leaf'
p1071
S'yehapatwaris'
p1072
sS'monday'
p1073
S'yitnenplunsom'
p1074
sS'for'
p1075
S'welparkeldle'
p1076
sS'purple'
p1077
S'mordzwanbegfyal'
p1078
sS'ice'
p1079
S'binyelotalbar'
p1080
sS'moon'
p1081
S'yeluntcadqam'
p1082
sS'fog'
p1083
S'wudhunyebcabtum'
p1084
sS'?'
p1085
S'maberkyahali'
p1086
sS'be'
p1087
S'castahokanbi'
p1088
sS'sixteen'
p1089
S'sidyecicol'
p1090
sS'schedule'
p1091
S'orancadjad'
p1092
sS'rub'
p1093
S'frotakmarowtir'
p1094
sS'corn'
p1095
S'umaikukdur'
p1096
sS'night'
p1097
S'yewnotlerat'
p1098
sS'howmuch'
p1099
S'kidwockolkwam'
p1100
sS'sixty'
p1101
S'lyowsesat'
p1102
sS'eye'
p1103
S'yenhoklas'
p1104
sS'throw'
p1105
S'tiranphenbras'
p1106
sS'shine'
p1107
S'falambriytcamsiy'
p1108
sS'stone'
p1109
S'capyedpathagam'
p1110
sS'eat'
p1111
S'tcakamyes'
p1112
sS'column'
p1113
S'kolyestamud'
p1114
sS'of'
p1115
S'daka'
p1116
sS'shrimp'
p1117
S'cyadjikamkriv'
p1118
sS'stand'
p1119
S'djanwekhalevstay'
p1120
sS'eight'
p1121
S'batcotamvos'
p1122
sS'tongue'
p1123
S'lendcablesyiz'
p1124
sS'or'
p1125
S'hwoyali'
p1126
sS'road'
p1127
S'kamsaluputar'
p1128
sS'software'
p1129
S'sofbarwanprag'
p1130
sS'repair'
p1131
S'cyorimarepaslah'
p1132
sS'garbage'
p1133
S'katmuzubalas'
p1134
sS'material'
p1135
S'samatsay'
p1136
sS'float'
p1137
S'fuflotermpli'
p1138
sS'down'
p1139
S'vnitcyasfalbah'
p1140
sS'because'
p1141
S'porkyincanpat'
p1142
sS'old'
p1143
S'vyehpulawqadstar'
p1144
sS'your'
p1145
S'nitumak'
p1146
sS'her'
p1147
S'tadsuskahayiy'
p1148
sS'eleven'
p1149
S'gyarhidincay'
p1150
sS'there'
p1151
S'vihentanal'
p1152
sS'literal'
p1153
S'harbukcalidzam'
p1154
sS'fast'
p1155
S'kwaydjarapis'
p1156
sS'fight'
p1157
S'dadpelarhar'
p1158
sS'start'
p1159
S'kaycurmpednat'
p1160
sS'low'
p1161
S'nwitsibah'
p1162
sS'way'
p1163
S'famantarspos'
p1164
sS'forward'
p1165
S'tcyenamdelgefpir'
p1166
sS'translate'
p1167
S'fanuvtradarpir'
p1168
sS'was'
p1169
S'thila'
p1170
sS'war'
p1171
S'gerharvayudjan'
p1172
sS'happy'
p1173
S'gawfelkhucasaid'
p1174
sS'fork'
p1175
S'cokatcadenvil'
p1176
sS'head'
p1177
S'towkabsarasgal'
p1178
sS'buy'
p1179
S'komayharctarkup'
p1180
sS'north'
p1181
S'beytarcanorsev'
p1182
sS'heal'
p1183
S'yidcankuritcaf'
p1184
sS'but'
p1185
S'perekacno'
p1186
sS'idea'
p1187
S'vidjeyfikmis'
p1188
sS'hi'
p1189
S'nanihlanpriv'
p1190
sS'hear'
p1191
S'tinoyslisun'
p1192
sS'russian'
p1193
S'rus'
p1194
sS'squeeze'
p1195
S'apredjirghus'
p1196
sS'with'
p1197
S'ganasat'
p1198
sS'dull'
p1199
S'dunbotelkuntup'
p1200
sS'he'
p1201
S'talvahown'
p1202
sS'count'
p1203
S'koncud'
p1204
sS'pull'
p1205
S'halakhitincad'
p1206
sS'october'
p1207
S'caktub'
p1208
sS'full'
p1209
S'yemanalpur'
p1210
sS'potato'
p1211
S'malupapatkar'
p1212
sS'smooth'
p1213
S'lisglatcigwanae'
p1214
sS'up'
p1215
S'canfuripar'
p1216
sS'below'
p1217
S'cyabahnitahpod'
p1218
sS'dirty'
p1219
S'dzanganwesusgraz'
p1220
sS'cake'
p1221
S'danpaskektor'
p1222
sS'problem'
p1223
S'wamusamprob'
p1224
sS'grass'
p1225
S'tsawherneghastrav'
p1226
sS'connect'
p1227
S'kondjulyentasvyaz'
p1228
sS'sort'
p1229
S'paysurdensan'
p1230
sS'napkin'
p1231
S'tsanepserman'
p1232
sS'constant'
p1233
S'tcanirkontab'
p1234
sS'taste'
p1235
S'tcangusvadaqprob'
p1236
sS'metal'
p1237
S'djinethatfil'
p1238
sS'am'
p1239
S'castahokanbi'
p1240
sS'hungry'
p1241
S'ambryenbhukaldjaw'
p1242
sS'sibling'
p1243
S'cyonermansaqsib'
p1244
sS'as'
p1245
S'kakzyantar'
p1246
sS'at'
p1247
S'dzaypen'
p1248
sS'file'
p1249
S'wanirtcivay'
p1250
sS'again'
p1251
S'dznovphirtan'
p1252
sS'spice'
p1253
S'pramaspecyantaw'
p1254
sS'no'
p1255
S'bunohlanyet'
p1256
sS'peace'
p1257
S'hapasanirsal'
p1258
sS'when'
p1259
S'cantakabkwan'
p1260
sS'book'
p1261
S'libucukniket'
p1262
sS'sick'
p1263
S'binferyanbal'
p1264
sS'tie'
p1265
S'batarabanviz'
p1266
sS'you'
p1267
S'entuni'
p1268
sS'smell'
p1269
S'wanlesugcamtcuy'
p1270
sS'nice'
p1271
S'tcinabdaykardob'
p1272
sS'picture'
p1273
S'mahtcituhsurkar'
p1274
sS'draw'
p1275
S'hwatcidibras'
p1276
sS'repeat'
p1277
S'karepafdohtcon'
p1278
sS'star'
p1279
S'estreytarzvicineg'
p1280
sS'plate'
p1281
S'platapantar'
p1282
sS'june'
p1283
S'lyowhundjyun'
p1284
sS'liedown'
p1285
S'yasletanamliz'
p1286
sS'meaning'
p1287
S'yisenanznart'
p1288
sS'important'
p1289
S'djonpormahvaj'
p1290
sS'stab'
p1291
S'tsapunbhontankal'
p1292
sS'kinda'
p1293
S'vryodhorpokal'
p1294
sS'variable'
p1295
S'byenutcarvarpir'
p1296
sS'hurt'
p1297
S'tondolimbal'
p1298
sS'building'
p1299
S'djyemardifzdamab'
p1300
sS'lead'
p1301
S'yinetgidvad'
p1302
sS'wife'
p1303
S'patmelawjimuh'
p1304
sS'rule'
p1305
S'regredqanprav'
p1306
sS'time'
p1307
S'cadyemsamwaqvrem'
p1308
sS'push'
p1309
S'tweympuhdhakzaq'
p1310
sS'backward'
p1311
S'howarpitrasnaz'
p1312
s.